target datalayout = "e-m:e-p270:32:32-p271:32:32-p272:64:64-i64:64-i128:128-f80:128-n8:16:32:64-S128"
target triple = "x86_64-pc-linux-gnu"

%struct.XXH3_state_s = type { [8 x i64], [192 x i8], [256 x i8], i32, i32, i64, i64, i64, i64, i64, i64, ptr }

; Function Attrs: mustprogress nounwind uwtable
define internal noalias noundef ptr @_ZL10XXH_mallocm(i64 noundef %0) #4 {
  %2 = alloca i64, align 8
  store i64 %0, ptr %2, align 8, !tbaa !8
  %3 = load i64, ptr %2, align 8, !tbaa !8
  %4 = call noalias ptr @malloc(i64 noundef %3) #23
  ret ptr %4
}

; Function Attrs: mustprogress nounwind uwtable
define internal noalias noundef ptr @_ZL17XXH_alignedMallocmm(i64 noundef %0, i64 noundef %1) #4 {
  %3 = alloca ptr, align 8
  %4 = alloca i64, align 8
  %5 = alloca i64, align 8
  %6 = alloca ptr, align 8
  %7 = alloca i64, align 8
  %8 = alloca ptr, align 8
  %9 = alloca i32, align 4
  store i64 %0, ptr %4, align 8, !tbaa !8
  store i64 %1, ptr %5, align 8, !tbaa !8
  %10 = load i64, ptr %5, align 8, !tbaa !8
  %11 = icmp ule i64 %10, 128
  br i1 %11, label %12, label %15

12:                                               ; preds = %2
  %13 = load i64, ptr %5, align 8, !tbaa !8
  %14 = icmp uge i64 %13, 8
  br i1 %14, label %16, label %15

15:                                               ; preds = %12, %2
  unreachable

16:                                               ; preds = %12
  %17 = load i64, ptr %5, align 8, !tbaa !8
  %18 = load i64, ptr %5, align 8, !tbaa !8
  %19 = sub i64 %18, 1
  %20 = and i64 %17, %19
  %21 = icmp eq i64 %20, 0
  br i1 %21, label %23, label %22

22:                                               ; preds = %16
  unreachable

23:                                               ; preds = %16
  %24 = load i64, ptr %4, align 8, !tbaa !8
  %25 = icmp ne i64 %24, 0
  br i1 %25, label %26, label %32

26:                                               ; preds = %23
  %27 = load i64, ptr %4, align 8, !tbaa !8
  %28 = load i64, ptr %4, align 8, !tbaa !8
  %29 = load i64, ptr %5, align 8, !tbaa !8
  %30 = add i64 %28, %29
  %31 = icmp ult i64 %27, %30
  br i1 %31, label %33, label %32

32:                                               ; preds = %26, %23
  unreachable

33:                                               ; preds = %26
  call void @llvm.lifetime.start.p0(i64 8, ptr %6) #22
  %34 = load i64, ptr %4, align 8, !tbaa !8
  %35 = load i64, ptr %5, align 8, !tbaa !8
  %36 = add i64 %34, %35
  %37 = call noalias noundef ptr @_ZL10XXH_mallocm(i64 noundef %36)
  store ptr %37, ptr %6, align 8, !tbaa !12
  %38 = load ptr, ptr %6, align 8, !tbaa !12
  %39 = icmp ne ptr %38, null
  br i1 %39, label %40, label %63

40:                                               ; preds = %33
  call void @llvm.lifetime.start.p0(i64 8, ptr %7) #22
  %41 = load i64, ptr %5, align 8, !tbaa !8
  %42 = load ptr, ptr %6, align 8, !tbaa !12
  %43 = ptrtoint ptr %42 to i64
  %44 = load i64, ptr %5, align 8, !tbaa !8
  %45 = sub i64 %44, 1
  %46 = and i64 %43, %45
  %47 = sub i64 %41, %46
  store i64 %47, ptr %7, align 8, !tbaa !8
  call void @llvm.lifetime.start.p0(i64 8, ptr %8) #22
  %48 = load ptr, ptr %6, align 8, !tbaa !12
  %49 = load i64, ptr %7, align 8, !tbaa !8
  %50 = getelementptr inbounds nuw i8, ptr %48, i64 %49
  store ptr %50, ptr %8, align 8, !tbaa !12
  %51 = load ptr, ptr %8, align 8, !tbaa !12
  %52 = ptrtoint ptr %51 to i64
  %53 = load i64, ptr %5, align 8, !tbaa !8
  %54 = urem i64 %52, %53
  %55 = icmp eq i64 %54, 0
  br i1 %55, label %57, label %56

56:                                               ; preds = %40
  unreachable

57:                                               ; preds = %40
  %58 = load i64, ptr %7, align 8, !tbaa !8
  %59 = trunc i64 %58 to i8
  %60 = load ptr, ptr %8, align 8, !tbaa !12
  %61 = getelementptr inbounds i8, ptr %60, i64 -1
  store i8 %59, ptr %61, align 1, !tbaa !29
  %62 = load ptr, ptr %8, align 8, !tbaa !12
  store ptr %62, ptr %3, align 8
  store i32 1, ptr %9, align 4
  call void @llvm.lifetime.end.p0(i64 8, ptr %8) #22
  call void @llvm.lifetime.end.p0(i64 8, ptr %7) #22
  br label %64

63:                                               ; preds = %33
  store ptr null, ptr %3, align 8
  store i32 1, ptr %9, align 4
  br label %64

64:                                               ; preds = %63, %57
  call void @llvm.lifetime.end.p0(i64 8, ptr %6) #22
  %65 = load ptr, ptr %3, align 8
  ret ptr %65
}

; Function Attrs: mustprogress uwtable
define noalias ptr @ROCKSDB_XXH3_createState() #3 {
  %1 = alloca ptr, align 8
  %2 = alloca ptr, align 8
  %3 = alloca i32, align 4
  call void @llvm.lifetime.start.p0(i64 8, ptr %2) #22
  %4 = call noalias noundef ptr @_ZL17XXH_alignedMallocmm(i64 noundef 576, i64 noundef 64)
  store ptr %4, ptr %2, align 8, !tbaa !40
  %5 = load ptr, ptr %2, align 8, !tbaa !40
  %6 = icmp eq ptr %5, null
  br i1 %6, label %7, label %8

7:                                                ; preds = %0
  store ptr null, ptr %1, align 8
  store i32 1, ptr %3, align 4
  br label %15

8:                                                ; preds = %0
  br label %9

9:                                                ; preds = %8
  %10 = load ptr, ptr %2, align 8, !tbaa !40
  %11 = getelementptr inbounds nuw %struct.XXH3_state_s, ptr %10, i32 0, i32 9
  store i64 0, ptr %11, align 8, !tbaa !42
  br label %12

12:                                               ; preds = %9
  br label %13

13:                                               ; preds = %12
  %14 = load ptr, ptr %2, align 8, !tbaa !40
  store ptr %14, ptr %1, align 8
  store i32 1, ptr %3, align 4
  br label %15

15:                                               ; preds = %13, %7
  call void @llvm.lifetime.end.p0(i64 8, ptr %2) #22
  %16 = load ptr, ptr %1, align 8
  ret ptr %16
}