; Function Attrs: mustprogress nofree nounwind willreturn memory(write, argmem: none, inaccessiblemem: readwrite) uwtable
define noalias ptr @ROCKSDB_XXH3_createState() local_unnamed_addr #16 {
  %1 = tail call noalias noundef dereferenceable_or_null(640) ptr @malloc(i64 noundef 640) #35
  %.not.i = icmp eq ptr %1, null
  br i1 %.not.i, label %_ZL17XXH_alignedMallocmm.exit.thread, label %2

2:                                                ; preds = %0
  %3 = ptrtoint ptr %1 to i64
  %4 = and i64 %3, 63
  %5 = sub nuw nsw i64 64, %4
  %6 = getelementptr inbounds nuw i8, ptr %1, i64 %5
  %7 = ptrtoint ptr %6 to i64
  %8 = and i64 %7, 63
  %9 = icmp eq i64 %8, 0
  tail call void @llvm.assume(i1 %9)
  %10 = trunc nuw nsw i64 %5 to i8
  %11 = getelementptr inbounds i8, ptr %6, i64 -1
  store i8 %10, ptr %11, align 1, !tbaa !12
  %12 = getelementptr inbounds nuw i8, ptr %6, i64 552
  store i64 0, ptr %12, align 8, !tbaa !33
  br label %_ZL17XXH_alignedMallocmm.exit.thread

_ZL17XXH_alignedMallocmm.exit.thread:             ; preds = %0, %2
  %.0 = phi ptr [ %6, %2 ], [ null, %0 ]
  ret ptr %.0
}